(dp1
S'output'
p2
S'missing "pass" in view'
p3
sS'layer'
p4
S'ParserContainer'
p5
sS'code'
p6
S'response.write(\'<!--[if HTML5]><![endif]-->\\n<!DOCTYPE html>\\n<!-- paulirish.com/2008/conditional-stylesheets-vs-css-hacks-answer-neither/ -->\\n<!--[if lt IE 7]><html class="ie ie6 ie-lte9 ie-lte8 ie-lte7 no-js" lang="\', escape=False)\nresponse.write(T.accepted_language or \'en\')\nresponse.write(\'"> <![endif]-->\\n<!--[if IE 7]><html class="ie ie7 ie-lte9 ie-lte8 ie-lte7 no-js" lang="\', escape=False)\nresponse.write(T.accepted_language or \'en\')\nresponse.write(\'"> <![endif]-->\\n<!--[if IE 8]><html class="ie ie8 ie-lte9 ie-lte8 no-js" lang="\', escape=False)\nresponse.write(T.accepted_language or \'en\')\nresponse.write(\'"> <![endif]-->\\n<!--[if IE 9]><html class="ie9 ie-lte9 no-js" lang="\', escape=False)\nresponse.write(T.accepted_language or \'en\')\nresponse.write(\'"> <![endif]-->\\n<!--[if (gt IE 9)|!(IE)]><!--> <html class="no-js" lang="\', escape=False)\nresponse.write(T.accepted_language or \'en\')\nresponse.write(\'"> <!--<![endif]-->\\n<head>\\n<title>\', escape=False)\nresponse.write(response.title or request.application)\nresponse.write(\'</title>\\n  <!--[if !HTML5]>\\n      <meta http-equiv="X-UA-Compatible" content="IE=edge\', escape=False)\nresponse.write(not request.is_local and \',chrome=1\' or \'\')\nresponse.write(\'">\\n  <![endif]-->\\n  <!-- www.phpied.com/conditional-comments-block-downloads/ -->\\n  <!-- Always force latest IE rendering engine\\n       (even in intranet) & Chrome Frame\\n       Remove this if you use the .htaccess -->\\n\\t   \\n  <meta charset="utf-8" />\\n\\n  <!-- http://dev.w3.org/html5/markup/meta.name.html -->\\n  <meta name="application-name" content="\', escape=False)\nresponse.write(request.application)\nresponse.write(\'" />\\n\\n  <!-- Speaking of Google, don\\\'t forget to set your site up:\\n       http://google.com/webmasters -->\\n  <meta name="google-site-verification" content="" />\\n\\n  <!--  Mobile Viewport Fix\\n        j.mp/mobileviewport & davidbcalhoun.com/2010/viewport-metatag\\n        device-width: Occupy full width of the screen in its current orientation\\n        initial-scale = 1.0 retains dimensions instead of zooming out if page height > device height\\n        user-scalable = yes allows the user to zoom in -->\\n  <meta name="viewport" content="width=device-width, initial-scale=1.0" />\\n\\n<!----  <link rel="shortcut icon" href="\', escape=False)\nresponse.write(URL(\'static\',\'images/favicon.ico\'))\nresponse.write(\'" type="image/x-icon">--->\\n <!--- <link rel="apple-touch-icon" href="\', escape=False)\nresponse.write(URL(\'static\',\'images/favicon.png\'))\nresponse.write(\'">--->\\n\\n  <!-- All JavaScript at the bottom, except for Modernizr which enables\\n       HTML5 elements & feature detects -->\\n  <script src="\', escape=False)\nresponse.write(URL(\'static\',\'js/modernizr.custom.js\'))\nresponse.write(\'"></script>\\n\\n  <!-- include stylesheets -->\\n  \', escape=False)\nresponse.files.append(URL(\'static\',\'css/web2py.css\'))\nresponse.files.append(URL(\'static\',\'css/bootstrap.min.css\'))\nresponse.files.append(URL(\'static\',\'css/bootstrap-responsive.min.css\'))\nresponse.files.append(URL(\'static\',\'css/web2py_bootstrap.css\'))\nresponse.write(\'\\n\\n  \', escape=False)\nresponse.write(\'<script type="text/javascript"><!--\\n    // These variables are used by the web2py_ajax_init function in web2py_ajax.js (which is loaded below).\\n    var w2p_ajax_confirm_message = "\', escape=False)\nresponse.write(T(\'Are you sure you want to delete this object?\'))\nresponse.write(\'";\\n    var w2p_ajax_date_format = "\', escape=False)\nresponse.write(T(\'%Y-%m-%d\'))\nresponse.write(\'";\\n    var w2p_ajax_datetime_format = "\', escape=False)\nresponse.write(T(\'%Y-%m-%d %H:%M:%S\'))\nresponse.write(\'";\\n    var ajax_error_500 = \\\'\', escape=False)\nresponse.write(XML(T(\'An error occured, please %s the page\') % A(T(\'reload\'), _href=URL(args=request.args, vars=request.vars))))\nresponse.write("\'\\n    //--></script>\\n", escape=False)\nresponse.files.insert(0,URL(\'static\',\'js/jquery.js\'))\nresponse.files.insert(1,URL(\'static\',\'css/calendar.css\'))\nresponse.files.insert(2,URL(\'static\',\'js/calendar.js\'))\nresponse.files.insert(3,URL(\'static\',\'js/web2py.js\'))\nresponse.include_meta()\nresponse.include_files()\nresponse.write(\'\\n\', escape=False)\nresponse.write(\'\\n\\n  \', escape=False)\n# using sidebars need to know what sidebar you want to use\nleft_sidebar_enabled = globals().get(\'left_sidebar_enabled\',False)\nright_sidebar_enabled = globals().get(\'right_sidebar_enabled\',False)\nmiddle_columns = {0:\'span12\',1:\'span9\',2:\'span6\'}[\n(left_sidebar_enabled and 1 or 0)+(right_sidebar_enabled and 1 or 0)]\nresponse.write(\'\\n\\n  <!-- uncomment here to load jquery-ui\\n       <link rel="stylesheet" href="http://ajax.googleapis.com/ajax/libs/jqueryui/1.8.16/themes/base/jquery-ui.css" type="text/css" media="all" />\\n       <script src="http://ajax.googleapis.com/ajax/libs/jqueryui/1.8.16/jquery-ui.min.js" type="text/javascript"></script>\\n       uncomment to load jquery-ui //-->\\n  <noscript><link href="\', escape=False)\nresponse.write(URL(\'static\', \'css/web2py_bootstrap_nojs.css\'))\nresponse.write(\'" rel="stylesheet" type="text/css" /></noscript>\\n  \', escape=False)\nresponse.write(\'\\n</head>\\n\\n<body>\\n  <!-- Navbar ================================================== -->\\n  <div class="navbar navbar-inverse navbar-fixed-top">\\n    <div class="flash">\', escape=False)\nresponse.write(response.flash or \'\')\nresponse.write(\'</div>\\n    <div class="navbar-inner">\\n      <div class="container">\\n        <!-- the next tag is necessary for bootstrap menus, do not remove -->\\n        <button type="button" class="btn btn-navbar" data-toggle="collapse" data-target=".nav-collapse">\\n          <span class="icon-bar"></span>\\n          <span class="icon-bar"></span>\\n          <span class="icon-bar"></span>\\n        </button>\\n\\t\', escape=False)\nresponse.write(response.logo or \'\')\nresponse.write(\'\\n        <ul id="navbar" class="nav pull-right">\', escape=False)\nresponse.write(\'auth\' in globals() and auth.navbar(mode="dropdown") or \'\')\nresponse.write(\'</ul>\\n        <div class="nav-collapse">\\n          \', escape=False)\nis_mobile=request.user_agent().is_mobile\nresponse.write(\'\\n          \', escape=False)\nif response.menu:\n    response.write(\'\\n          \', escape=False)\n    response.write(MENU(response.menu, _class=\'mobile-menu nav\' if is_mobile else \'nav\',mobile=is_mobile,li_class=\'dropdown\',ul_class=\'dropdown-menu\'))\n    response.write(\'\\n          \', escape=False)\n    pass\nresponse.write(\'\\n        </div><!--/.nav-collapse -->\\n      </div>\\n    </div>\\n  </div><!--/top navbar -->\\n\\n  <div class="container">\\n    \\n    <!-- Masthead ================================================== -->\\n    \', escape=False)\nbackimage = URL(\'static\',\'fi.jpg\')\nresponse.write(\'\\n    <header class="mastheader row" id="header" style="background-image: url(\\\'\', escape=False)\nresponse.write(backimage)\nresponse.write(\'\\\')" >\\n        \\n        <div class="span12">\\n            <div class="page-header">\\n                <h1 style="color:#FF6600">\\n                    \', escape=False)\nresponse.write(response.title or request.application)\nresponse.write(\'\\n                    <small style="color:#FFFF66">\', escape=False)\nresponse.write(response.subtitle or \'\')\nresponse.write(\'</small>\\n                </h1>\\n            </div>\\n        </div>\\n      \\n    </header>\\n      \\n    <section id="main" class="main row">\\n        \', escape=False)\nif left_sidebar_enabled:\n    response.write(\'\\n        <div class="span3 left-sidebar">\\n            \', escape=False)\n    response.write(\'\\n            <h3>Left Sidebar</h3>\\n            <p></p>\\n            \', escape=False)\n    response.write(\'\\n        </div>\\n        \', escape=False)\n    pass\nresponse.write(\'\\n      \\n        <div class="\', escape=False)\nresponse.write(middle_columns)\nresponse.write(\'">\\n            \', escape=False)\nresponse.write(\'\\n            \', escape=False)\nresponse.write(\'\\n\', escape=False)\nresponse.write(\'\\n<style type="text/css">\\n        .active {\\n         display:inline;\\n         margin-left: 2em; \\n         font-size:20px;  \\n        }\\n    </style>\\n<ul>\\n      <li class="active"><a href="\', escape=False)\nresponse.write(URL(\'create_post\'))\nresponse.write(\'">Upload Recipe</a></li>\\n      <li class="active"><a href="\', escape=False)\nresponse.write(URL(\'viewallposts\'))\nresponse.write(\'">View All Recipes</a></li>\\n      <li class="active"><a href="\', escape=False)\nresponse.write(URL(\'viewmyposts\'))\nresponse.write(\'">View My Recipes</a></li>\\n      <li class="active"><a href="\', escape=False)\nresponse.write(URL(\'view_people\'))\nresponse.write(\'">View All Users</a></li>\\n      <li class="active"><a href="\', escape=False)\nresponse.write(URL(\'home\'))\nresponse.write(\'">View My Profile</a></li>\\n</ul>\\n<br>\\n<hr>\\n\\n<h2> All Recipes </h2>\\n\', escape=False)\nif len(abcd) == 0 :\n    response.write(\'\\n    No Recent Recipes\\n\', escape=False)\n    pass\nresponse.write(\'\\n<br>\\n<ul>\\n\', escape=False)\nfor i in abcd:\n    response.write(\'\\n        \\n        \\n \\t<li>\\n    \\t\', escape=False)\n    response.write(i[\'post_text\'])\n    response.write(\'\\n        \', escape=False)\n    temp = db(db.posts.id == i[\'id\']).select(db.posts.image)\n    response.write(\'\\n       \\t<div><a href="\', escape=False)\n    response.write(URL(\'recipe\',args=i[\'id\']))\n    response.write(\'">\\n        <img style="width:200px" src="\', escape=False)\n    response.write(URL(\'download\', args=temp[0][\'image\']))\n    response.write(\'"></img>\\n        </a></div>\\n    \\n        <br />\\n        <span class="i">\\n    \\n        On \', escape=False)\n    response.write(i.created_on)\n    response.write(\' by <a href = "homepage/\', escape=False)\n    response.write(i.created_by)\n    response.write(\'">\', escape=False)\n    response.write(i.created_by.first_name)\n    response.write(\'</a>\\n\\n        </span>\\n        <br />\\n        <br />\\n        <div>\\n        <span>\\n            \', escape=False)\n    z=0\n    response.write(\'\\n\\t\\t<input type="button" style="width:50px" name="like" value="Like" onClick="\', escape=False)\n    response.write(URL(\'addlike\',args=i[\'id\']))\n    response.write(\'">\\n            \', escape=False)\n    for li in l:\n        response.write(\'\\n                \', escape=False)\n        if li[\'postid\']==i[\'id\']:\n            response.write(\'\\n            \\t\\t \', escape=False)\n            z=z+1\n            response.write(\'\\n            : z</span>\\n\\n\\t\\t</div>\\n        <br>\\n        Comments : \\n        <form action="post1" method="post">\\n        <input type="text" style="width:400px" name="comment" placeholder="Enter comment here">\\n        <input type="hidden" name="pid" value=\', escape=False)\n            response.write(i[\'id\'])\n            response.write(\'>\\n        <input type="hidden" name="prev" value="viewallposts">\\n       \\t</form>\\n\\n       \\t\', escape=False)\n            for post in comments:\n                response.write(\'\\n            \', escape=False)\n                if post[\'postid\'] == i[\'id\']:\n                    response.write(\'\\n                <div class="post" style="background-color: #E0E0E0;">\\n                  On \', escape=False)\n                    response.write(post.created_on)\n                    response.write(\' <a href = "homepage/\', escape=False)\n                    response.write(i.created_by)\n                    response.write(\'">\', escape=False)\n                    response.write(post.created_by.first_name)\n                    response.write(\'</a>\\n                  says <span class="post_body">\', escape=False)\n                    response.write(post.body)\n                    response.write(\'</span>\\n                </div>\\n                <br />\\n\\t\\t\\t\', escape=False)\n                    pass\n                response.write(\'\\n\\t\\t\', escape=False)\n                pass\n            response.write(\'        \\n        </li>\\t\\t\\n\\t\', escape=False)\n            pass\n        response.write(\'\\t\\t\\t\\n</ul>\\n<div style="float:center;width:100%;text-align:center">\\n    <span><a style="float:center" href="\', escape=False)\n        response.write(URL(\'changeVarDecrease\'))\n        response.write(\'">previous</a> \\n        &nbsp : &nbsp \\n        <a style="float:center" href="\', escape=False)\n        response.write(URL(\'changeVarIncrease\'))\n        response.write(\'">next</a></span><br>\\n </div>\\n\', escape=False)\n        response.write(\'\\n            \', escape=False)\n        response.write(\'\\n        </div>\\n\\n        \', escape=False)\n        if right_sidebar_enabled:\n            response.write(\'\\n\\n                    <div class="span3">\\n            \', escape=False)\n            response.write(\'\\n            <h3>Right Sidebar</h3>\\n            <p></p>\\n            \', escape=False)\n            response.write(\'\\n        </div>\\n        \', escape=False)\n            pass\n        response.write(\'\\n    </section><!--/main-->\\n      \\n    <!-- Footer ================================================== -->\\n    <div class="row">\\n        <footer class="footer span12" id="footer">\\n            <div class="footer-content">\\n                \', escape=False)\n        response.write(\' <!-- this is default footer -->\\n                <div class="copyright pull-left">\', escape=False)\n        response.write(T(\'Copyright\'))\n        response.write(\' &#169; \', escape=False)\n        response.write(request.now.year)\n        response.write(\'</div>\\n                <div id="poweredBy" class="pull-right">\\n                    \', escape=False)\n        response.write(T(\'Powered by MyDish\'))\n        response.write(\'\\n                    \\n                </div>\\n                \', escape=False)\n        response.write(\'\\n            </div>\\n        </footer>\\n    </div>\\n    </div>\\n  </div> <!-- /container -->\\n    \\n  <!-- The javascript =============================================\\n       (Placed at the end of the document so the pages load faster) -->\\n  <script src="\', escape=False)\n        response.write(URL(\'static\',\'js/bootstrap.min.js\'))\n        response.write(\'"></script>\\n  <script src="\', escape=False)\n        response.write(URL(\'static\',\'js/web2py_bootstrap.js\'))\n        response.write(\'"></script>\\n  <!--[if lt IE 7 ]>\\n      <script src="\', escape=False)\n        response.write(URL(\'static\',\'js/dd_belatedpng.js\'))\n        response.write(\'"></script>\\n      <script> DD_belatedPNG.fix(\\\'img, .png_bg\\\'); //fix any <img> or .png_bg background-images </script>\\n      <![endif]-->\\n  \\n  \', escape=False)\n        if response.google_analytics_id:\n            response.write(\'\\n  <script src="\', escape=False)\n            response.write(URL(\'static\',\'js/analytics.min.js\'))\n            response.write(\'"></script>\\n  <script type="text/javascript">\\n  analytics.initialize({\\n    \\\'Google Analytics\\\':{trackingId:\\\'\', escape=False)\n            response.write(response.google_analytics_id)\n            response.write("\'} \\n  });</script>\\n  ", escape=False)\n            pass\n        response.write(\'\\n  <script src="\', escape=False)\n        response.write(URL(\'static\',\'js/share.js\',vars=dict(static=URL(\'static\',\'images\'))))\n        response.write(\'"></script>\\n</body>\\n</html>\\n\', escape=False)'
p7
sS'snapshot'
p8
(dp9
S'exception'
p10
(dp11
S'__module__'
p12
S"'gluon.rocket'"
p13
sS'__getslice__'
p14
S"<method-wrapper '__getslice__' of SocketClosed object>"
p15
sS'__str__'
p16
S"<method-wrapper '__str__' of SocketClosed object>"
p17
sS'__reduce__'
p18
S'<built-in method __reduce__ of SocketClosed object>'
p19
sS'__dict__'
p20
S'{}'
p21
sS'__sizeof__'
p22
S'<built-in method __sizeof__ of SocketClosed object>'
p23
sS'__weakref__'
p24
S'None'
p25
sS'__init__'
p26
S"<method-wrapper '__init__' of SocketClosed object>"
p27
sS'__setattr__'
p28
S"<method-wrapper '__setattr__' of SocketClosed object>"
p29
sS'__reduce_ex__'
p30
S'<built-in method __reduce_ex__ of SocketClosed object>'
p31
sS'__new__'
p32
S'<built-in method __new__ of type object>'
p33
sS'__format__'
p34
S'<built-in method __format__ of SocketClosed object>'
p35
sS'__class__'
p36
S"<class 'gluon.rocket.SocketClosed'>"
p37
sS'__doc__'
p38
S"'Exception for when a socket is closed by the client.'"
p39
sS'__getitem__'
p40
S"<method-wrapper '__getitem__' of SocketClosed object>"
p41
sS'__setstate__'
p42
S'<built-in method __setstate__ of SocketClosed object>'
p43
sS'__getattribute__'
p44
S"<method-wrapper '__getattribute__' of SocketClosed object>"
p45
sS'args'
p46
S"('Client closed socket.',)"
p47
sS'__subclasshook__'
p48
S'<built-in method __subclasshook__ of type object>'
p49
sS'__unicode__'
p50
S'<built-in method __unicode__ of SocketClosed object>'
p51
sS'__delattr__'
p52
S"<method-wrapper '__delattr__' of SocketClosed object>"
p53
sS'__repr__'
p54
S"<method-wrapper '__repr__' of SocketClosed object>"
p55
sS'__hash__'
p56
S"<method-wrapper '__hash__' of SocketClosed object>"
p57
ssS'evalue'
p58
S'Client closed socket.'
p59
sS'frames'
p60
(lp61
(dp62
S'file'
p63
S'/home/navya/itws2/web2pynew/gluon/rocket.py'
p64
sS'dump'
p65
(dp66
S'self'
p67
S'<WSGIWorker(Thread-3, started daemon 140530974222080)>'
p68
sS'conn'
p69
S'<gluon.rocket.Connection object>'
p70
sS'self.run_app'
p71
S'<bound method WSGIWorker.run_app of <WSGIWorker(Thread-3, started daemon 140530974222080)>>'
p72
ssS'lnum'
p73
I1337
sS'lines'
p74
(dp75
I1332
S'            # Enter connection serve loop'
p76
sI1333
S'            while True:'
p77
sI1334
S'                if __debug__:'
p78
sI1335
S"                    self.err_log.debug('Serving a request')"
p79
sI1336
S'                try:'
p80
sI1337
S'                    self.run_app(conn)'
p81
sI1338
S'                except:'
p82
sI1339
S'                    exc = sys.exc_info()'
p83
sI1340
S'                    handled = self._handleError(*exc)'
p84
sI1341
S'                    if handled:'
p85
ssS'call'
p86
S'(self=<WSGIWorker(Thread-3, started daemon 140530974222080)>)'
p87
sS'func'
p88
S'run'
p89
sa(dp90
g63
S'/home/navya/itws2/web2pynew/gluon/rocket.py'
p91
sg65
(dp92
S'self'
p93
S'<WSGIWorker(Thread-3, started daemon 140530974222080)>'
p94
sS'self.environ'
p95
S"{'HTTP_ACCEPT': 'text/html,application/xhtml+xml,application/xml;q=0.9,*/*;q=0.8', 'HTTP_ACCEPT_ENCODING': 'gzip, deflate', 'HTTP_ACCEPT_LANGUAGE': 'en-US,en;q=0.5', 'HTTP_CACHE_CONTROL': 'max-age=0', 'HTTP_CONNECTION': 'keep-alive', 'HTTP_COOKIE': '__atuvc=2%7C13; session_id_welcome=127.0.0.1-ebd...ly=127.0.0.1-0aeb8e79-de6d-438b-985f-ab6d42f521a3', 'HTTP_HOST': '127.0.0.1:8000', 'HTTP_REFERER': 'http://127.0.0.1:8000/FOODILY/default/viewallposts', 'HTTP_USER_AGENT': 'Mozilla/5.0 (X11; Ubuntu; Linux x86_64; rv:43.0) Gecko/20100101 Firefox/43.0', 'PATH_INFO': '/FOODILY/default/viewallposts', ...}"
p96
sS'sock_file'
p97
S'<socket._fileobject object>'
p98
sS'environ'
p99
S'undefined'
p100
sS'self.build_environ'
p101
S'<bound method WSGIWorker.build_environ of <WSGIWorker(Thread-3, started daemon 140530974222080)>>'
p102
sS'conn'
p103
S'<gluon.rocket.Connection object>'
p104
ssg73
I1830
sg74
(dp105
I1825
S'        else:'
p106
sI1826
S'            sock_file = conn.makefile(BUF_SIZE)'
p107
sI1827
S''
sI1828
S'        try:'
p108
sI1829
S'            # Read the headers and build our WSGI environment'
p109
sI1830
S'            self.environ = environ = self.build_environ(sock_file, conn)'
p110
sI1831
S''
sI1832
S'            # Handle 100 Continue'
p111
sI1833
S"            if environ.get('HTTP_EXPECT', '') == '100-continue':"
p112
sI1834
S"                res = environ['SERVER_PROTOCOL'] + ' 100 Continue\\r\\n\\r\\n'"
p113
ssg86
S'(self=<WSGIWorker(Thread-3, started daemon 140530974222080)>, conn=<gluon.rocket.Connection object>)'
p114
sg88
S'run_app'
p115
sa(dp116
g63
S'/home/navya/itws2/web2pynew/gluon/rocket.py'
p117
sg65
(dp118
S'sock_file'
p119
S'<socket._fileobject object>'
p120
sS'self.read_request_line'
p121
S'<bound method WSGIWorker.read_request_line of <W...orker(Thread-3, started daemon 140530974222080)>>'
p122
sS'self'
p123
S'<WSGIWorker(Thread-3, started daemon 140530974222080)>'
p124
sS'request'
p125
g100
ssg73
I1650
sg74
(dp126
I1645
S'                                      "wsgiorg.futures": executor.futures})'
p127
sI1646
S''
sI1647
S'    def build_environ(self, sock_file, conn):'
p128
sI1648
S'        """ Build the execution environment. """'
p129
sI1649
S'        # Grab the request line'
p130
sI1650
S'        request = self.read_request_line(sock_file)'
p131
sI1651
S''
sI1652
S'        # Copy the Base Environment'
p132
sI1653
S'        environ = self.base_environ.copy()'
p133
sI1654
S''
ssg86
S'(self=<WSGIWorker(Thread-3, started daemon 140530974222080)>, sock_file=<socket._fileobject object>, conn=<gluon.rocket.Connection object>)'
p134
sg88
S'build_environ'
p135
sa(dp136
g63
S'/home/navya/itws2/web2pynew/gluon/rocket.py'
p137
sg65
(dp138
S'global SocketClosed'
p139
S"<class 'gluon.rocket.SocketClosed'>"
p140
ssg73
I1413
sg74
(dp141
I1408
S''
sI1409
S'        if not d:'
p142
sI1410
S'            if __debug__:'
p143
sI1411
S'                self.err_log.debug('
p144
sI1412
S"                    'Client did not send a recognizable request.')"
p145
sI1413
S"            raise SocketClosed('Client closed socket.')"
p146
sI1414
S''
sI1415
S'        self.request_line = d'
p147
sI1416
S''
sI1417
S"        # NOTE: I've replaced the traditional method of procedurally breaking"
p148
ssg86
S'(self=<WSGIWorker(Thread-3, started daemon 140530974222080)>, sock_file=<socket._fileobject object>)'
p149
sg88
S'read_request_line'
p150
sasS'pyver'
p151
S'Python 2.7.6: /usr/bin/python (prefix: /usr)'
p152
sS'etype'
p153
S"<class 'gluon.rocket.SocketClosed'>"
p154
sS'date'
p155
S'Tue Mar 29 15:47:42 2016'
p156
sS'locals'
p157
(dp158
S'sock_file'
p159
S'<socket._fileobject object>'
p160
sS'self'
p161
S'<WSGIWorker(Thread-3, started daemon 140530974222080)>'
p162
sS'd'
S"''"
p163
sssS'traceback'
p164
S'Traceback (most recent call last):\n  File "/home/navya/itws2/web2pynew/gluon/rocket.py", line 1337, in run\n    self.run_app(conn)\n  File "/home/navya/itws2/web2pynew/gluon/rocket.py", line 1830, in run_app\n    self.environ = environ = self.build_environ(sock_file, conn)\n  File "/home/navya/itws2/web2pynew/gluon/rocket.py", line 1650, in build_environ\n    request = self.read_request_line(sock_file)\n  File "/home/navya/itws2/web2pynew/gluon/rocket.py", line 1413, in read_request_line\n    raise SocketClosed(\'Client closed socket.\')\nSocketClosed: Client closed socket.\n'
p165
s.